; Function Attrs: mustprogress uwtable
define dso_local noundef i32 @_ZN16cmCursesMainForm9LoadCacheEPKc(ptr noundef nonnull align 8 dereferenceable(297) %0, ptr nocapture noundef readnone %1) local_unnamed_addr #3 align 2 {
  %3 = getelementptr inbounds i8, ptr %0, i64 224
  %4 = load ptr, ptr %3, align 8
  %5 = tail call noundef i32 @_ZN5cmake9LoadCacheEv(ptr noundef nonnull align 8 dereferenceable(2216) %4)
  %6 = icmp slt i32 %5, 0
  br i1 %6, label %14, label %7

7:                                                ; preds = %2
  %8 = load ptr, ptr %3, align 8
  tail call void @_ZN5cmake22ProcessPresetVariablesEv(ptr noundef nonnull align 8 dereferenceable(2216) %8)
  %9 = load ptr, ptr %3, align 8
  tail call void @_ZN5cmake24ProcessPresetEnvironmentEv(ptr noundef nonnull align 8 dereferenceable(2216) %9)
  %10 = load ptr, ptr %3, align 8
  %11 = getelementptr inbounds i8, ptr %0, i64 112
  %12 = tail call noundef zeroext i1 @_ZN5cmake12SetCacheArgsERKSt6vectorINSt7__cxx1112basic_stringIcSt11char_traitsIcESaIcEEESaIS6_EE(ptr noundef nonnull align 8 dereferenceable(2216) %10, ptr noundef nonnull align 8 dereferenceable(24) %11)
  %13 = load ptr, ptr %3, align 8
  tail call void @_ZN5cmake17PreLoadCMakeFilesEv(ptr noundef nonnull align 8 dereferenceable(2216) %13)
  br label %14

14:                                               ; preds = %2, %7
  ret i32 %5
}